target datalayout = "e-m:e-p270:32:32-p271:32:32-p272:64:64-i64:64-i128:128-f80:128-n8:16:32:64-S128"
target triple = "x86_64-pc-linux-gnu"

%struct.H5G_link_table_t = type { i64, ptr }
%struct.H5O_link_t = type { i32, i8, i64, i32, ptr, %union.anon }
%union.anon = type { %struct.H5O_link_ud_t }
%struct.H5O_link_ud_t = type { ptr, i64 }

@H5G_init_g = external global i8, align 1
@H5_libterm_g = external global i8, align 1
@.str = private unnamed_addr constant [104 x i8] c"generated/home/dtcxzyw/WorkSpace/Projects/compilers/llvm-opt-benchmark/bench/hdf5/hdf5/src/H5Gcompact.c\00", align 1
@H5E_SYM_g = external global i64, align 8
@H5E_CANTINIT_g = external global i64, align 8
@__func__.H5G__compact_get_name_by_idx = private unnamed_addr constant [29 x i8] c"H5G__compact_get_name_by_idx\00", align 1
@.str.2 = private unnamed_addr constant [32 x i8] c"can't create link message table\00", align 1
@H5E_ARGS_g = external global i64, align 8
@H5E_BADVALUE_g = external global i64, align 8
@.str.3 = private unnamed_addr constant [19 x i8] c"index out of bound\00", align 1
@H5E_CANTFREE_g = external global i64, align 8
@.str.4 = private unnamed_addr constant [29 x i8] c"unable to release link table\00", align 1

; Function Attrs: nounwind uwtable
define i32 @H5G__compact_get_name_by_idx(ptr noundef %0, ptr noundef %1, i32 noundef %2, i32 noundef %3, i64 noundef %4, ptr noundef %5, i64 noundef %6, ptr noundef %7) #0 {
  %9 = alloca ptr, align 8
  %10 = alloca ptr, align 8
  %11 = alloca i32, align 4
  %12 = alloca i32, align 4
  %13 = alloca i64, align 8
  %14 = alloca ptr, align 8
  %15 = alloca i64, align 8
  %16 = alloca ptr, align 8
  %17 = alloca %struct.H5G_link_table_t, align 8
  %18 = alloca i32, align 4
  %19 = alloca i8, align 1
  store ptr %0, ptr %9, align 8, !tbaa !3
  store ptr %1, ptr %10, align 8, !tbaa !18
  store i32 %2, ptr %11, align 4, !tbaa !10
  store i32 %3, ptr %12, align 4, !tbaa !10
  store i64 %4, ptr %13, align 8, !tbaa !16
  store ptr %5, ptr %14, align 8, !tbaa !20
  store i64 %6, ptr %15, align 8, !tbaa !16
  store ptr %7, ptr %16, align 8, !tbaa !22
  call void @llvm.lifetime.start.p0(i64 16, ptr %17) #8
  call void @llvm.memset.p0.i64(ptr align 8 %17, i8 0, i64 16, i1 false)
  call void @llvm.lifetime.start.p0(i64 4, ptr %18) #8
  store i32 0, ptr %18, align 4, !tbaa !10
  call void @llvm.lifetime.start.p0(i64 1, ptr %19) #8
  store i8 0, ptr %19, align 1, !tbaa !12
  %20 = load i8, ptr @H5G_init_g, align 1, !tbaa !12, !range !14, !noundef !15
  %21 = trunc i8 %20 to i1
  br i1 %21, label %26, label %22

22:                                               ; preds = %8
  %23 = load i8, ptr @H5_libterm_g, align 1, !tbaa !12, !range !14, !noundef !15
  %24 = trunc i8 %23 to i1
  %25 = xor i1 %24, true
  br label %26

26:                                               ; preds = %22, %8
  %27 = phi i1 [ true, %8 ], [ %25, %22 ]
  %28 = xor i1 %27, true
  %29 = xor i1 %28, true
  %30 = zext i1 %29 to i32
  %31 = sext i32 %30 to i64
  %32 = call i64 @llvm.expect.i64(i64 %31, i64 1)
  %33 = icmp ne i64 %32, 0
  br i1 %33, label %34, label %152

34:                                               ; preds = %26
  %35 = load ptr, ptr %9, align 8, !tbaa !3
  %36 = load ptr, ptr %10, align 8, !tbaa !18
  %37 = load i32, ptr %11, align 4, !tbaa !10
  %38 = load i32, ptr %12, align 4, !tbaa !10
  %39 = call i32 @H5G__compact_build_table(ptr noundef %35, ptr noundef %36, i32 noundef %37, i32 noundef %38, ptr noundef %17)
  %40 = icmp slt i32 %39, 0
  br i1 %40, label %41, label %60

41:                                               ; preds = %34
  br label %42

42:                                               ; preds = %41
  br label %43

43:                                               ; preds = %42
  br label %44

44:                                               ; preds = %43
  %45 = load i64, ptr @H5E_SYM_g, align 8, !tbaa !16
  %46 = load i64, ptr @H5E_CANTINIT_g, align 8, !tbaa !16
  %47 = call i32 (ptr, ptr, i32, i64, i64, ptr, ...) @H5E_printf_stack(ptr noundef @.str, ptr noundef @__func__.H5G__compact_get_name_by_idx, i32 noundef 210, i64 noundef %45, i64 noundef %46, ptr noundef @.str.2)
  br label %48

48:                                               ; preds = %44
  br label %49

49:                                               ; preds = %48
  store i8 1, ptr %19, align 1, !tbaa !12
  %50 = load i8, ptr %19, align 1, !tbaa !12, !range !14, !noundef !15
  %51 = trunc i8 %50 to i1
  %52 = zext i1 %51 to i8
  store i8 %52, ptr %19, align 1, !tbaa !12
  br label %53

53:                                               ; preds = %49
  br label %54

54:                                               ; preds = %53
  br label %55

55:                                               ; preds = %54
  store i32 -1, ptr %18, align 4, !tbaa !10
  br label %128

56:                                               ; No predecessors!
  br label %57

57:                                               ; preds = %56
  br label %58

58:                                               ; preds = %57
  br label %59

59:                                               ; preds = %58
  br label %60

60:                                               ; preds = %59, %34
  %61 = load i64, ptr %13, align 8, !tbaa !16
  %62 = getelementptr inbounds nuw %struct.H5G_link_table_t, ptr %17, i32 0, i32 0
  %63 = load i64, ptr %62, align 8, !tbaa !24
  %64 = icmp uge i64 %61, %63
  br i1 %64, label %65, label %84

65:                                               ; preds = %60
  br label %66

66:                                               ; preds = %65
  br label %67

67:                                               ; preds = %66
  br label %68

68:                                               ; preds = %67
  %69 = load i64, ptr @H5E_ARGS_g, align 8, !tbaa !16
  %70 = load i64, ptr @H5E_BADVALUE_g, align 8, !tbaa !16
  %71 = call i32 (ptr, ptr, i32, i64, i64, ptr, ...) @H5E_printf_stack(ptr noundef @.str, ptr noundef @__func__.H5G__compact_get_name_by_idx, i32 noundef 214, i64 noundef %69, i64 noundef %70, ptr noundef @.str.3)
  br label %72

72:                                               ; preds = %68
  br label %73

73:                                               ; preds = %72
  store i8 1, ptr %19, align 1, !tbaa !12
  %74 = load i8, ptr %19, align 1, !tbaa !12, !range !14, !noundef !15
  %75 = trunc i8 %74 to i1
  %76 = zext i1 %75 to i8
  store i8 %76, ptr %19, align 1, !tbaa !12
  br label %77

77:                                               ; preds = %73
  br label %78

78:                                               ; preds = %77
  br label %79

79:                                               ; preds = %78
  store i32 -1, ptr %18, align 4, !tbaa !10
  br label %128

80:                                               ; No predecessors!
  br label %81

81:                                               ; preds = %80
  br label %82

82:                                               ; preds = %81
  br label %83

83:                                               ; preds = %82
  br label %84

84:                                               ; preds = %83, %60
  %85 = getelementptr inbounds nuw %struct.H5G_link_table_t, ptr %17, i32 0, i32 1
  %86 = load ptr, ptr %85, align 8, !tbaa !26
  %87 = load i64, ptr %13, align 8, !tbaa !16
  %88 = getelementptr inbounds nuw %struct.H5O_link_t, ptr %86, i64 %87
  %89 = getelementptr inbounds nuw %struct.H5O_link_t, ptr %88, i32 0, i32 4
  %90 = load ptr, ptr %89, align 8, !tbaa !27
  %91 = call i64 @strlen(ptr noundef %90) #9
  %92 = load ptr, ptr %16, align 8, !tbaa !22
  store i64 %91, ptr %92, align 8, !tbaa !16
  %93 = load ptr, ptr %14, align 8, !tbaa !20
  %94 = icmp ne ptr %93, null
  br i1 %94, label %95, label %127

95:                                               ; preds = %84
  %96 = load ptr, ptr %14, align 8, !tbaa !20
  %97 = getelementptr inbounds nuw %struct.H5G_link_table_t, ptr %17, i32 0, i32 1
  %98 = load ptr, ptr %97, align 8, !tbaa !26
  %99 = load i64, ptr %13, align 8, !tbaa !16
  %100 = getelementptr inbounds nuw %struct.H5O_link_t, ptr %98, i64 %99
  %101 = getelementptr inbounds nuw %struct.H5O_link_t, ptr %100, i32 0, i32 4
  %102 = load ptr, ptr %101, align 8, !tbaa !27
  %103 = load ptr, ptr %16, align 8, !tbaa !22
  %104 = load i64, ptr %103, align 8, !tbaa !16
  %105 = add i64 %104, 1
  %106 = load i64, ptr %15, align 8, !tbaa !16
  %107 = icmp ult i64 %105, %106
  br i1 %107, label %108, label %112

108:                                              ; preds = %95
  %109 = load ptr, ptr %16, align 8, !tbaa !22
  %110 = load i64, ptr %109, align 8, !tbaa !16
  %111 = add i64 %110, 1
  br label %114

112:                                              ; preds = %95
  %113 = load i64, ptr %15, align 8, !tbaa !16
  br label %114

114:                                              ; preds = %112, %108
  %115 = phi i64 [ %111, %108 ], [ %113, %112 ]
  %116 = call ptr @strncpy(ptr noundef %96, ptr noundef %102, i64 noundef %115) #8
  %117 = load ptr, ptr %16, align 8, !tbaa !22
  %118 = load i64, ptr %117, align 8, !tbaa !16
  %119 = load i64, ptr %15, align 8, !tbaa !16
  %120 = icmp uge i64 %118, %119
  br i1 %120, label %121, label %126

121:                                              ; preds = %114
  %122 = load ptr, ptr %14, align 8, !tbaa !20
  %123 = load i64, ptr %15, align 8, !tbaa !16
  %124 = sub i64 %123, 1
  %125 = getelementptr inbounds nuw i8, ptr %122, i64 %124
  store i8 0, ptr %125, align 1, !tbaa !29
  br label %126

126:                                              ; preds = %121, %114
  br label %127

127:                                              ; preds = %126, %84
  br label %128

128:                                              ; preds = %127, %79, %55
  %129 = getelementptr inbounds nuw %struct.H5G_link_table_t, ptr %17, i32 0, i32 1
  %130 = load ptr, ptr %129, align 8, !tbaa !26
  %131 = icmp ne ptr %130, null
  br i1 %131, label %132, label %151

132:                                              ; preds = %128
  %133 = call i32 @H5G__link_release_table(ptr noundef %17)
  %134 = icmp slt i32 %133, 0
  br i1 %134, label %135, label %151

135:                                              ; preds = %132
  br label %136

136:                                              ; preds = %135
  br label %137

137:                                              ; preds = %136
  br label %138

138:                                              ; preds = %137
  %139 = load i64, ptr @H5E_SYM_g, align 8, !tbaa !16
  %140 = load i64, ptr @H5E_CANTFREE_g, align 8, !tbaa !16
  %141 = call i32 (ptr, ptr, i32, i64, i64, ptr, ...) @H5E_printf_stack(ptr noundef @.str, ptr noundef @__func__.H5G__compact_get_name_by_idx, i32 noundef 229, i64 noundef %139, i64 noundef %140, ptr noundef @.str.4)
  br label %142

142:                                              ; preds = %138
  br label %143

143:                                              ; preds = %142
  store i8 1, ptr %19, align 1, !tbaa !12
  %144 = load i8, ptr %19, align 1, !tbaa !12, !range !14, !noundef !15
  %145 = trunc i8 %144 to i1
  %146 = zext i1 %145 to i8
  store i8 %146, ptr %19, align 1, !tbaa !12
  br label %147

147:                                              ; preds = %143
  br label %148

148:                                              ; preds = %147
  store i32 -1, ptr %18, align 4, !tbaa !10
  br label %149

149:                                              ; preds = %148
  br label %150

150:                                              ; preds = %149
  br label %151

151:                                              ; preds = %150, %132, %128
  br label %152

152:                                              ; preds = %151, %26
  %153 = load i32, ptr %18, align 4, !tbaa !10
  call void @llvm.lifetime.end.p0(i64 1, ptr %19) #8
  call void @llvm.lifetime.end.p0(i64 4, ptr %18) #8
  call void @llvm.lifetime.end.p0(i64 16, ptr %17) #8
  ret i32 %153
}