; Function Attrs: nounwind uwtable
define range(i32 -1, 1) i32 @H5G__compact_get_name_by_idx(ptr noundef %0, ptr noundef readonly captures(none) %1, i32 noundef %2, i32 noundef %3, i64 noundef %4, ptr noundef %5, i64 noundef %6, ptr noundef captures(none) %7) local_unnamed_addr #0 {
  %9 = alloca %struct.H5G_link_table_t, align 8
  call void @llvm.lifetime.start.p0(i64 16, ptr nonnull %9) #8
  call void @llvm.memset.p0.i64(ptr noundef nonnull align 8 dereferenceable(16) %9, i8 0, i64 16, i1 false)
  %10 = load i8, ptr @H5G_init_g, align 1, !tbaa !3, !range !7, !noundef !8
  %11 = trunc nuw i8 %10 to i1
  %12 = load i8, ptr @H5_libterm_g, align 1, !range !7
  %13 = trunc nuw i8 %12 to i1
  %14 = xor i1 %13, true
  %15 = select i1 %11, i1 true, i1 %14
  br i1 %15, label %16, label %52, !prof !9

16:                                               ; preds = %8
  %17 = call fastcc i32 @H5G__compact_build_table(ptr noundef %0, ptr noundef %1, i32 noundef %2, i32 noundef %3, ptr noundef %9)
  %18 = icmp slt i32 %17, 0
  br i1 %18, label %19, label %23

19:                                               ; preds = %16
  %20 = load i64, ptr @H5E_SYM_g, align 8, !tbaa !10
  %21 = load i64, ptr @H5E_CANTINIT_g, align 8, !tbaa !10
  %22 = call i32 (ptr, ptr, i32, i64, i64, ptr, ...) @H5E_printf_stack(ptr noundef nonnull @.str, ptr noundef nonnull @__func__.H5G__compact_get_name_by_idx, i32 noundef 210, i64 noundef %20, i64 noundef %21, ptr noundef nonnull @.str.2) #8
  br label %42

23:                                               ; preds = %16
  %24 = load i64, ptr %9, align 8, !tbaa !12
  %.not = icmp ult i64 %4, %24
  br i1 %.not, label %29, label %25

25:                                               ; preds = %23
  %26 = load i64, ptr @H5E_ARGS_g, align 8, !tbaa !10
  %27 = load i64, ptr @H5E_BADVALUE_g, align 8, !tbaa !10
  %28 = call i32 (ptr, ptr, i32, i64, i64, ptr, ...) @H5E_printf_stack(ptr noundef nonnull @.str, ptr noundef nonnull @__func__.H5G__compact_get_name_by_idx, i32 noundef 214, i64 noundef %26, i64 noundef %27, ptr noundef nonnull @.str.3) #8
  br label %42

29:                                               ; preds = %23
  %30 = getelementptr inbounds nuw i8, ptr %9, i64 8
  %31 = load ptr, ptr %30, align 8, !tbaa !16
  %32 = getelementptr inbounds nuw %struct.H5O_link_t, ptr %31, i64 %4, i32 4
  %33 = load ptr, ptr %32, align 8, !tbaa !17
  %34 = call i64 @strlen(ptr noundef nonnull dereferenceable(1) %33) #9
  store i64 %34, ptr %7, align 8, !tbaa !10
  %.not26 = icmp eq ptr %5, null
  br i1 %.not26, label %42, label %35

35:                                               ; preds = %29
  %36 = add i64 %34, 1
  %. = call i64 @llvm.umin.i64(i64 %36, i64 %6)
  %37 = call ptr @strncpy(ptr noundef nonnull %5, ptr noundef nonnull %33, i64 noundef %.) #8
  %38 = load i64, ptr %7, align 8, !tbaa !10
  %.not27 = icmp ult i64 %38, %6
  br i1 %.not27, label %42, label %39

39:                                               ; preds = %35
  %40 = getelementptr i8, ptr %5, i64 %6
  %41 = getelementptr i8, ptr %40, i64 -1
  store i8 0, ptr %41, align 1, !tbaa !21
  br label %42

42:                                               ; preds = %29, %39, %35, %25, %19
  %.1 = phi i32 [ -1, %19 ], [ -1, %25 ], [ 0, %39 ], [ 0, %35 ], [ 0, %29 ]
  %43 = getelementptr inbounds nuw i8, ptr %9, i64 8
  %44 = load ptr, ptr %43, align 8, !tbaa !16
  %.not28 = icmp eq ptr %44, null
  br i1 %.not28, label %52, label %45

45:                                               ; preds = %42
  %46 = call i32 @H5G__link_release_table(ptr noundef nonnull %9) #8
  %47 = icmp slt i32 %46, 0
  br i1 %47, label %48, label %52

48:                                               ; preds = %45
  %49 = load i64, ptr @H5E_SYM_g, align 8, !tbaa !10
  %50 = load i64, ptr @H5E_CANTFREE_g, align 8, !tbaa !10
  %51 = call i32 (ptr, ptr, i32, i64, i64, ptr, ...) @H5E_printf_stack(ptr noundef nonnull @.str, ptr noundef nonnull @__func__.H5G__compact_get_name_by_idx, i32 noundef 229, i64 noundef %49, i64 noundef %50, ptr noundef nonnull @.str.4) #8
  br label %52

52:                                               ; preds = %42, %45, %48, %8
  %.0 = phi i32 [ -1, %48 ], [ %.1, %45 ], [ %.1, %42 ], [ 0, %8 ]
  call void @llvm.lifetime.end.p0(i64 16, ptr nonnull %9) #8
  ret i32 %.0
}